Certificate:
    Data:
        Version: 3 (0x2)
        Serial Number: 4096 (0x1000)
    Signature Algorithm: md5WithRSAEncryption
        Issuer: C=us, ST=ut, L=uofu, O=uofu, OU=uofu, CN=msd/emailAddress=u1430770@umail.utah.edu
        Validity
            Not Before: Mar 28 05:43:19 2023 GMT
            Not After : Mar 27 05:43:19 2024 GMT
        Subject: C=us, ST=ut, O=uofu, OU=uofu, CN=msd/emailAddress=u1430770@umail.utah.edu
        Subject Public Key Info:
            Public Key Algorithm: rsaEncryption
                RSA Public-Key: (4096 bit)
                Modulus:
                    00:9c:ab:28:52:8b:1e:5c:24:b1:69:5f:28:44:46:
                    2c:8f:2f:c6:60:4f:88:09:3d:df:f7:b6:6e:5f:e1:
                    29:a6:84:0a:0c:7a:b2:54:03:52:29:18:d8:97:65:
                    7b:75:39:26:12:c3:59:d3:2f:a9:5a:f3:c9:ee:17:
                    8c:fc:b5:5d:b7:9a:76:c1:08:62:66:95:c6:6f:dc:
                    6c:ae:02:c0:c4:79:9c:8a:3d:4e:54:07:8d:e0:96:
                    99:03:8d:5b:43:7d:64:24:3b:08:a2:35:50:a8:96:
                    06:2f:18:11:b6:95:33:cf:b1:76:e6:66:44:6a:8d:
                    c8:ad:4b:8f:0a:87:b7:8f:f3:55:9a:a1:cc:9e:4e:
                    f6:9c:26:69:52:79:7c:8a:71:ee:7a:d9:99:26:f0:
                    ea:ea:cc:da:99:c3:bf:17:73:74:b5:92:67:85:de:
                    ad:ae:65:22:ee:af:3a:e1:3c:e5:c9:b9:34:38:c8:
                    ab:e3:25:ab:72:2d:90:a3:39:00:fd:65:b3:67:a8:
                    ce:1e:87:90:10:14:ae:f3:bc:6f:72:f7:3b:2b:28:
                    6e:20:e8:bb:82:ab:cf:09:f0:47:a4:19:8a:ed:c6:
                    fc:56:22:87:5b:1f:92:24:71:b8:a3:bd:fa:3e:33:
                    46:c0:5a:60:49:c0:9d:05:b1:7b:f1:e9:34:dd:b3:
                    58:79:59:53:89:e5:e1:f0:09:6d:06:b5:44:7a:87:
                    40:b3:fa:72:e9:95:3a:1b:e7:7a:0c:ba:0c:9b:4c:
                    2f:d4:ee:72:9e:1a:ef:42:0c:70:62:ea:9a:42:61:
                    a4:62:65:60:73:05:75:17:e1:52:00:77:63:e7:e6:
                    16:54:e8:09:d1:23:0d:01:b7:2b:f6:1e:9b:39:fc:
                    aa:9d:3c:73:d2:b3:d8:a4:c8:50:07:9a:86:60:3a:
                    61:41:8c:e4:69:a2:69:ef:98:60:ab:1e:d8:82:ef:
                    e0:55:5c:33:e9:3d:e1:af:b6:99:43:23:b4:45:1c:
                    b6:28:5e:dd:c5:79:e8:c9:30:da:4a:2f:1c:ef:4e:
                    85:da:cd:52:72:c3:53:21:32:74:9b:6a:9b:d5:3d:
                    22:7e:b8:cc:28:e1:a5:d5:4d:b0:d3:26:c3:a0:0f:
                    5b:8b:8d:d3:57:20:83:84:3d:6b:68:9e:97:d0:34:
                    d4:3d:f4:9a:d3:a6:c2:2f:4b:88:b9:ca:28:67:24:
                    51:f5:75:8a:2b:79:c6:1d:4d:c5:d7:d3:c6:35:91:
                    e5:cf:ca:2c:27:26:49:70:18:66:e5:50:53:fe:e1:
                    21:04:84:2d:99:01:36:54:62:c6:7a:a7:59:96:ab:
                    92:37:ca:5e:8a:13:1c:6f:34:e8:d4:b9:cb:e5:01:
                    81:9b:77
                Exponent: 65537 (0x10001)
        X509v3 extensions:
            X509v3 Basic Constraints: 
                CA:FALSE
            Netscape Comment: 
                OpenSSL Generated Certificate
            X509v3 Subject Key Identifier: 
                8F:E9:F1:B0:DE:8C:55:8E:40:68:46:57:BF:E5:72:FE:26:4F:88:72
            X509v3 Authority Key Identifier: 
                DirName:/C=us/ST=ut/L=uofu/O=uofu/OU=uofu/CN=msd/emailAddress=u1430770@umail.utah.edu
                serial:D3:06:FE:9A:56:D1:72:14

    Signature Algorithm: md5WithRSAEncryption
         bf:d5:ca:7a:32:36:c6:b5:36:de:ac:ef:0f:c5:08:2e:64:39:
         d3:78:4f:19:70:24:58:a4:ac:85:36:5d:42:d1:24:aa:d5:e5:
         57:cd:57:a6:25:3e:f5:c1:67:46:3b:a0:76:65:35:35:c3:22:
         2c:83:3a:b9:c4:63:45:c8:3c:91:b5:e0:8e:e5:b0:75:8b:4f:
         eb:8c:12:ee:3c:8e:85:d6:70:e8:b8:15:3f:7a:a6:b8:c8:39:
         5c:91:b6:51:d3:be:83:88:40:8e:d8:66:b7:f2:6a:67:44:85:
         bf:1a:94:93:47:8c:64:60:25:f7:cf:70:28:5f:a9:47:1c:f7:
         6e:c3:9f:3f:d9:01:1a:d2:64:c9:af:af:fe:c5:a2:30:98:25:
         e1:18:34:81:64:70:d9:c4:ff:fd:06:4f:c2:73:d4:d9:a7:36:
         b2:df:58:d6:b8:ca:a3:89:67:64:0a:0d:5d:cc:eb:dc:7e:6e:
         4b:63:2c:86:ff:bf:e6:c0:84:72:1c:a6:e8:5f:f4:d0:f8:92:
         b3:26:06:68:9b:8a:9d:b6:af:3a:78:41:51:e9:1b:f1:b1:13:
         eb:7a:e5:ef:8d:54:19:04:41:58:e6:ee:df:c2:b9:ee:a4:bc:
         ed:be:db:c8:61:d7:54:cd:95:68:19:0e:99:d2:eb:1d:f3:cf:
         65:8a:d9:da:55:03:68:1b:67:bc:7c:2f:95:47:7a:dd:d6:c1:
         0a:12:22:b4:f4:85:f1:99:e5:15:6b:7e:79:b1:3e:29:ed:04:
         8d:b8:fd:fd:3f:47:57:e2:7d:f6:05:0d:80:86:36:da:27:8a:
         70:2f:0d:89:b8:88:83:a3:6d:98:09:a0:3f:55:bc:89:14:30:
         22:29:15:a2:c0:7c:fb:f1:a0:ef:97:c9:16:05:54:c7:1e:ca:
         ee:bc:a0:0c:5f:eb:a0:ba:6d:3a:b5:6d:fe:53:be:e4:8d:b4:
         41:2a:ad:df:d0:d6:8d:b9:8d:7c:45:8d:57:07:8a:0f:70:02:
         ff:5b:cd:52:16:47:56:39:f5:36:02:3e:2d:8c:4d:2f:0c:65:
         50:9f:4b:b5:22:ed:6d:7d:c4:02:e0:01:f1:3c:1b:24:3d:94:
         45:19:6f:62:c3:90:35:37:cb:f3:d5:01:1e:71:3f:2c:03:7a:
         23:59:c3:a7:d4:d1:a7:ae:26:23:03:21:cf:05:ef:7f:58:ca:
         e9:70:64:01:1f:86:35:8d:c7:32:12:76:fc:1d:5f:82:18:33:
         e2:1a:22:b0:3b:6b:6e:69:68:0f:d9:85:1c:c7:fc:66:37:c8:
         5d:ba:bf:e5:cf:16:58:41:e8:03:89:61:d5:ef:9b:ac:42:1c:
         e4:2e:61:24:77:9a:6f:d6
-----BEGIN CERTIFICATE-----
MIIGYDCCBEigAwIBAgICEAAwDQYJKoZIhvcNAQEEBQAwfTELMAkGA1UEBhMCdXMx
CzAJBgNVBAgMAnV0MQ0wCwYDVQQHDAR1b2Z1MQ0wCwYDVQQKDAR1b2Z1MQ0wCwYD
VQQLDAR1b2Z1MQwwCgYDVQQDDANtc2QxJjAkBgkqhkiG9w0BCQEWF3UxNDMwNzcw
QHVtYWlsLnV0YWguZWR1MB4XDTIzMDMyODA1NDMxOVoXDTI0MDMyNzA1NDMxOVow
bjELMAkGA1UEBhMCdXMxCzAJBgNVBAgMAnV0MQ0wCwYDVQQKDAR1b2Z1MQ0wCwYD
VQQLDAR1b2Z1MQwwCgYDVQQDDANtc2QxJjAkBgkqhkiG9w0BCQEWF3UxNDMwNzcw
QHVtYWlsLnV0YWguZWR1MIICIjANBgkqhkiG9w0BAQEFAAOCAg8AMIICCgKCAgEA
nKsoUoseXCSxaV8oREYsjy/GYE+ICT3f97ZuX+EppoQKDHqyVANSKRjYl2V7dTkm
EsNZ0y+pWvPJ7heM/LVdt5p2wQhiZpXGb9xsrgLAxHmcij1OVAeN4JaZA41bQ31k
JDsIojVQqJYGLxgRtpUzz7F25mZEao3IrUuPCoe3j/NVmqHMnk72nCZpUnl8inHu
etmZJvDq6szamcO/F3N0tZJnhd6trmUi7q864Tzlybk0OMir4yWrci2QozkA/WWz
Z6jOHoeQEBSu87xvcvc7KyhuIOi7gqvPCfBHpBmK7cb8ViKHWx+SJHG4o736PjNG
wFpgScCdBbF78ek03bNYeVlTieXh8AltBrVEeodAs/py6ZU6G+d6DLoMm0wv1O5y
nhrvQgxwYuqaQmGkYmVgcwV1F+FSAHdj5+YWVOgJ0SMNAbcr9h6bOfyqnTxz0rPY
pMhQB5qGYDphQYzkaaJp75hgqx7Ygu/gVVwz6T3hr7aZQyO0RRy2KF7dxXnoyTDa
Si8c706F2s1ScsNTITJ0m2qb1T0ifrjMKOGl1U2w0ybDoA9bi43TVyCDhD1raJ6X
0DTUPfSa06bCL0uIucooZyRR9XWKK3nGHU3F19PGNZHlz8osJyZJcBhm5VBT/uEh
BIQtmQE2VGLGeqdZlquSN8peihMcbzTo1LnL5QGBm3cCAwEAAaOB+DCB9TAJBgNV
HRMEAjAAMCwGCWCGSAGG+EIBDQQfFh1PcGVuU1NMIEdlbmVyYXRlZCBDZXJ0aWZp
Y2F0ZTAdBgNVHQ4EFgQUj+nxsN6MVY5AaEZXv+Vy/iZPiHIwgZoGA1UdIwSBkjCB
j6GBgaR/MH0xCzAJBgNVBAYTAnVzMQswCQYDVQQIDAJ1dDENMAsGA1UEBwwEdW9m
dTENMAsGA1UECgwEdW9mdTENMAsGA1UECwwEdW9mdTEMMAoGA1UEAwwDbXNkMSYw
JAYJKoZIhvcNAQkBFhd1MTQzMDc3MEB1bWFpbC51dGFoLmVkdYIJANMG/ppW0XIU
MA0GCSqGSIb3DQEBBAUAA4ICAQC/1cp6MjbGtTberO8PxQguZDnTeE8ZcCRYpKyF
Nl1C0SSq1eVXzVemJT71wWdGO6B2ZTU1wyIsgzq5xGNFyDyRteCO5bB1i0/rjBLu
PI6F1nDouBU/eqa4yDlckbZR076DiECO2Ga38mpnRIW/GpSTR4xkYCX3z3AoX6lH
HPduw58/2QEa0mTJr6/+xaIwmCXhGDSBZHDZxP/9Bk/Cc9TZpzay31jWuMqjiWdk
Cg1dzOvcfm5LYyyG/7/mwIRyHKboX/TQ+JKzJgZom4qdtq86eEFR6RvxsRPreuXv
jVQZBEFY5u7fwrnupLztvtvIYddUzZVoGQ6Z0usd889litnaVQNoG2e8fC+VR3rd
1sEKEiK09IXxmeUVa355sT4p7QSNuP39P0dX4n32BQ2AhjbaJ4pwLw2JuIiDo22Y
CaA/VbyJFDAiKRWiwHz78aDvl8kWBVTHHsruvKAMX+ugum06tW3+U77kjbRBKq3f
0NaNuY18RY1XB4oPcAL/W81SFkdWOfU2Aj4tjE0vDGVQn0u1Iu1tfcQC4AHxPBsk
PZRFGW9iw5A1N8vz1QEecT8sA3ojWcOn1NGnriYjAyHPBe9/WMrpcGQBH4Y1jccy
Enb8HV+CGDPiGiKwO2tuaWgP2YUcx/xmN8hdur/lzxZYQegDiWHV75usQhzkLmEk
d5pv1g==
-----END CERTIFICATE-----
